
./mem_files/data_hazard.elf:     file format elf32-littleriscv


Disassembly of section .text:

00000000 <_start>:
   0:	00000013          	nop
   4:	00000093          	li	ra,0
   8:	00000113          	li	sp,0
   c:	00000193          	li	gp,0
  10:	00000213          	li	tp,0
  14:	00000293          	li	t0,0
  18:	00000313          	li	t1,0
  1c:	00000393          	li	t2,0
  20:	00000413          	li	s0,0
  24:	00000493          	li	s1,0
  28:	00000513          	li	a0,0
  2c:	00000593          	li	a1,0
  30:	00000613          	li	a2,0
  34:	00000693          	li	a3,0
  38:	00000713          	li	a4,0
  3c:	00000793          	li	a5,0
  40:	00000813          	li	a6,0
  44:	00000893          	li	a7,0
  48:	00000913          	li	s2,0
  4c:	00000993          	li	s3,0
  50:	00000a13          	li	s4,0
  54:	00000a93          	li	s5,0
  58:	00000b13          	li	s6,0
  5c:	00000b93          	li	s7,0
  60:	00000c13          	li	s8,0
  64:	00000c93          	li	s9,0
  68:	00000d13          	li	s10,0
  6c:	00000d93          	li	s11,0
  70:	00000e13          	li	t3,0
  74:	00000e93          	li	t4,0
  78:	00000f13          	li	t5,0
  7c:	00000f93          	li	t6,0
  80:	00008117          	auipc	sp,0x8
  84:	f7c10113          	addi	sp,sp,-132 # 7ffc <__stack_pointer>
  88:	00018193          	mv	gp,gp
  8c:	30501073          	csrw	mtvec,zero
  90:	30401073          	csrw	mie,zero
  94:	30001073          	csrw	mstatus,zero
  98:	34401073          	csrw	mip,zero
  9c:	00004717          	auipc	a4,0x4
  a0:	f6470713          	addi	a4,a4,-156 # 4000 <__DATA_BEGIN__>
  a4:	00004797          	auipc	a5,0x4
  a8:	f5c78793          	addi	a5,a5,-164 # 4000 <__DATA_BEGIN__>

000000ac <clear_bss_loop>:
  ac:	00f75863          	bge	a4,a5,bc <clear_bss_end>
  b0:	00072023          	sw	zero,0(a4)
  b4:	00470713          	addi	a4,a4,4
  b8:	ff5ff06f          	j	ac <clear_bss_loop>

000000bc <clear_bss_end>:
  bc:	010000ef          	jal	ra,cc <main>
  c0:	00000513          	li	a0,0
  c4:	05d00893          	li	a7,93
  c8:	00100073          	ebreak

000000cc <main>:
  cc:	06400093          	li	ra,100
  d0:	09600113          	li	sp,150
  d4:	002081b3          	add	gp,ra,sp
  d8:	00000013          	nop
  dc:	00000013          	nop
  e0:	00000013          	nop
  e4:	00000013          	nop
  e8:	00000013          	nop
  ec:	00000013          	nop
  f0:	0fa00213          	li	tp,250
  f4:	00000013          	nop
  f8:	00000013          	nop
  fc:	00000013          	nop
 100:	00000013          	nop
 104:	00000013          	nop
 108:	00000013          	nop
 10c:	08020863          	beqz	tp,19c <fail0>
 110:	00000013          	nop
 114:	00000013          	nop
 118:	00000013          	nop
 11c:	00000013          	nop
 120:	00000013          	nop
 124:	00000013          	nop
 128:	08419063          	bne	gp,tp,1a8 <fail1>
 12c:	06400093          	li	ra,100
 130:	09600113          	li	sp,150
 134:	00000013          	nop
 138:	00000013          	nop
 13c:	002081b3          	add	gp,ra,sp
 140:	00000013          	nop
 144:	00000013          	nop
 148:	00000013          	nop
 14c:	00000013          	nop
 150:	00000013          	nop
 154:	00000013          	nop
 158:	04419e63          	bne	gp,tp,1b4 <fail2>
 15c:	06400093          	li	ra,100
 160:	09600113          	li	sp,150
 164:	00000013          	nop
 168:	00000013          	nop
 16c:	00000013          	nop
 170:	002081b3          	add	gp,ra,sp
 174:	00000013          	nop
 178:	00000013          	nop
 17c:	00000013          	nop
 180:	00000013          	nop
 184:	00000013          	nop
 188:	00000013          	nop
 18c:	02419a63          	bne	gp,tp,1c0 <fail3>

00000190 <pass>:
 190:	00000513          	li	a0,0
 194:	05d00893          	li	a7,93
 198:	00100073          	ebreak

0000019c <fail0>:
 19c:	00100513          	li	a0,1
 1a0:	05d00893          	li	a7,93
 1a4:	00100073          	ebreak

000001a8 <fail1>:
 1a8:	00200513          	li	a0,2
 1ac:	05d00893          	li	a7,93
 1b0:	00100073          	ebreak

000001b4 <fail2>:
 1b4:	00400513          	li	a0,4
 1b8:	05d00893          	li	a7,93
 1bc:	00100073          	ebreak

000001c0 <fail3>:
 1c0:	00600513          	li	a0,6
 1c4:	05d00893          	li	a7,93
 1c8:	00100073          	ebreak
