
./mem_files/interrupts.elf:     file format elf32-littleriscv


Disassembly of section .text:

00000000 <_start>:
   0:	00000013          	nop
   4:	00000093          	li	ra,0
   8:	00000113          	li	sp,0
   c:	00000193          	li	gp,0
  10:	00000213          	li	tp,0
  14:	00000293          	li	t0,0
  18:	00000313          	li	t1,0
  1c:	00000393          	li	t2,0
  20:	00000413          	li	s0,0
  24:	00000493          	li	s1,0
  28:	00000513          	li	a0,0
  2c:	00000593          	li	a1,0
  30:	00000613          	li	a2,0
  34:	00000693          	li	a3,0
  38:	00000713          	li	a4,0
  3c:	00000793          	li	a5,0
  40:	00000813          	li	a6,0
  44:	00000893          	li	a7,0
  48:	00000913          	li	s2,0
  4c:	00000993          	li	s3,0
  50:	00000a13          	li	s4,0
  54:	00000a93          	li	s5,0
  58:	00000b13          	li	s6,0
  5c:	00000b93          	li	s7,0
  60:	00000c13          	li	s8,0
  64:	00000c93          	li	s9,0
  68:	00000d13          	li	s10,0
  6c:	00000d93          	li	s11,0
  70:	00000e13          	li	t3,0
  74:	00000e93          	li	t4,0
  78:	00000f13          	li	t5,0
  7c:	00000f93          	li	t6,0
  80:	00008117          	auipc	sp,0x8
  84:	f7c10113          	addi	sp,sp,-132 # 7ffc <__stack_pointer>
  88:	00018193          	mv	gp,gp
  8c:	30501073          	csrw	mtvec,zero
  90:	30401073          	csrw	mie,zero
  94:	30001073          	csrw	mstatus,zero
  98:	34401073          	csrw	mip,zero
  9c:	00004717          	auipc	a4,0x4
  a0:	f6470713          	addi	a4,a4,-156 # 4000 <__DATA_BEGIN__>
  a4:	00004797          	auipc	a5,0x4
  a8:	f5c78793          	addi	a5,a5,-164 # 4000 <__DATA_BEGIN__>

000000ac <clear_bss_loop>:
  ac:	00f75863          	bge	a4,a5,bc <clear_bss_end>
  b0:	00072023          	sw	zero,0(a4)
  b4:	00470713          	addi	a4,a4,4
  b8:	ff5ff06f          	j	ac <clear_bss_loop>

000000bc <clear_bss_end>:
  bc:	010000ef          	jal	ra,cc <main>
  c0:	00000513          	li	a0,0
  c4:	05d00893          	li	a7,93
  c8:	00100073          	ebreak

000000cc <main>:
  cc:	00800093          	li	ra,8
  d0:	30009073          	csrw	mstatus,ra
  d4:	000010b7          	lui	ra,0x1
  d8:	88808093          	addi	ra,ra,-1912 # 888 <fail1+0x6ec>
  dc:	30409073          	csrw	mie,ra
  e0:	00000097          	auipc	ra,0x0
  e4:	04008093          	addi	ra,ra,64 # 120 <interrupt_handler>
  e8:	30509073          	csrw	mtvec,ra
  ec:	5f000137          	lui	sp,0x5f000
  f0:	00100193          	li	gp,1
  f4:	00312023          	sw	gp,0(sp) # 5f000000 <MSIP_BASE_ADDRESS>
  f8:	5f0000b7          	lui	ra,0x5f000
  fc:	00408093          	addi	ra,ra,4 # 5f000004 <MTIME_BASE_ADDRESS>
 100:	0000a103          	lw	sp,0(ra)
 104:	00310113          	addi	sp,sp,3
 108:	5f0001b7          	lui	gp,0x5f000
 10c:	00c18193          	addi	gp,gp,12 # 5f00000c <MTIMECMP_BASE_ADDRESS>
 110:	0021a023          	sw	sp,0(gp) # 4800 <__global_pointer$>
 114:	0001a223          	sw	zero,4(gp) # 4804 <__global_pointer$+0x4>

00000118 <loop>:
 118:	00000013          	nop
 11c:	ffdff06f          	j	118 <loop>

00000120 <interrupt_handler>:
 120:	34202173          	csrr	sp,mcause
 124:	800001b7          	lui	gp,0x80000
 128:	00b18193          	addi	gp,gp,11 # 8000000b <MTIMECMP_BASE_ADDRESS+0x20ffffff>
 12c:	80000237          	lui	tp,0x80000
 130:	00320213          	addi	tp,tp,3 # 80000003 <MTIMECMP_BASE_ADDRESS+0x20fffff7>
 134:	800002b7          	lui	t0,0x80000
 138:	00728293          	addi	t0,t0,7 # 80000007 <MTIMECMP_BASE_ADDRESS+0x20fffffb>
 13c:	04018a63          	beqz	gp,190 <fail0>
 140:	04020863          	beqz	tp,190 <fail0>
 144:	04028663          	beqz	t0,190 <fail0>
 148:	00410663          	beq	sp,tp,154 <check_software_interrupt>
 14c:	00510c63          	beq	sp,t0,164 <check_timer_interrupt>
 150:	30200073          	mret

00000154 <check_software_interrupt>:
 154:	5f000137          	lui	sp,0x5f000
 158:	00012023          	sw	zero,0(sp) # 5f000000 <MSIP_BASE_ADDRESS>
 15c:	00100513          	li	a0,1
 160:	30200073          	mret

00000164 <check_timer_interrupt>:
 164:	fff00113          	li	sp,-1
 168:	5f0001b7          	lui	gp,0x5f000
 16c:	00c18193          	addi	gp,gp,12 # 5f00000c <MTIMECMP_BASE_ADDRESS>
 170:	0021a023          	sw	sp,0(gp) # 4800 <__global_pointer$>
 174:	00100593          	li	a1,1
 178:	00100793          	li	a5,1
 17c:	00f51a63          	bne	a0,a5,190 <fail0>
 180:	00f59e63          	bne	a1,a5,19c <fail1>

00000184 <pass>:
 184:	00000513          	li	a0,0
 188:	05d00893          	li	a7,93
 18c:	00100073          	ebreak

00000190 <fail0>:
 190:	00100513          	li	a0,1
 194:	05d00893          	li	a7,93
 198:	00100073          	ebreak

0000019c <fail1>:
 19c:	00200513          	li	a0,2
 1a0:	05d00893          	li	a7,93
 1a4:	00100073          	ebreak
