
./mem_files/lw.elf:     file format elf32-littleriscv


Disassembly of section .text:

00000000 <_start>:
   0:	00000013          	nop
   4:	00000093          	li	ra,0
   8:	00000113          	li	sp,0
   c:	00000193          	li	gp,0
  10:	00000213          	li	tp,0
  14:	00000293          	li	t0,0
  18:	00000313          	li	t1,0
  1c:	00000393          	li	t2,0
  20:	00000413          	li	s0,0
  24:	00000493          	li	s1,0
  28:	00000513          	li	a0,0
  2c:	00000593          	li	a1,0
  30:	00000613          	li	a2,0
  34:	00000693          	li	a3,0
  38:	00000713          	li	a4,0
  3c:	00000793          	li	a5,0
  40:	00000813          	li	a6,0
  44:	00000893          	li	a7,0
  48:	00000913          	li	s2,0
  4c:	00000993          	li	s3,0
  50:	00000a13          	li	s4,0
  54:	00000a93          	li	s5,0
  58:	00000b13          	li	s6,0
  5c:	00000b93          	li	s7,0
  60:	00000c13          	li	s8,0
  64:	00000c93          	li	s9,0
  68:	00000d13          	li	s10,0
  6c:	00000d93          	li	s11,0
  70:	00000e13          	li	t3,0
  74:	00000e93          	li	t4,0
  78:	00000f13          	li	t5,0
  7c:	00000f93          	li	t6,0
  80:	00008117          	auipc	sp,0x8
  84:	f7c10113          	addi	sp,sp,-132 # 7ffc <__stack_pointer>
  88:	00018193          	mv	gp,gp
  8c:	30501073          	csrw	mtvec,zero
  90:	30401073          	csrw	mie,zero
  94:	30001073          	csrw	mstatus,zero
  98:	34401073          	csrw	mip,zero
  9c:	81418713          	addi	a4,gp,-2028 # 4014 <__bss_end>
  a0:	81418793          	addi	a5,gp,-2028 # 4014 <__bss_end>

000000a4 <clear_bss_loop>:
  a4:	00f75863          	bge	a4,a5,b4 <clear_bss_end>
  a8:	00072023          	sw	zero,0(a4)
  ac:	00470713          	addi	a4,a4,4
  b0:	ff5ff06f          	j	a4 <clear_bss_loop>

000000b4 <clear_bss_end>:
  b4:	010000ef          	jal	ra,c4 <main>
  b8:	00000513          	li	a0,0
  bc:	05d00893          	li	a7,93
  c0:	00100073          	ebreak

000000c4 <main>:
  c4:	00004097          	auipc	ra,0x4
  c8:	f3c08093          	addi	ra,ra,-196 # 4000 <__DATA_BEGIN__>
  cc:	00808093          	addi	ra,ra,8
  d0:	0000a103          	lw	sp,0(ra)
  d4:	0080a183          	lw	gp,8(ra)
  d8:	ff80a203          	lw	tp,-8(ra)
  dc:	113352b7          	lui	t0,0x11335
  e0:	57728293          	addi	t0,t0,1399 # 11335577 <__ram_end+0x1132d577>
  e4:	02028a63          	beqz	t0,118 <fail0>
  e8:	abcdf337          	lui	t1,0xabcdf
  ec:	f1930313          	addi	t1,t1,-231 # abcdef19 <__ram_end+0xabcd6f19>
  f0:	02030463          	beqz	t1,118 <fail0>
  f4:	123453b7          	lui	t2,0x12345
  f8:	67838393          	addi	t2,t2,1656 # 12345678 <__ram_end+0x1233d678>
  fc:	00038e63          	beqz	t2,118 <fail0>
 100:	02511263          	bne	sp,t0,124 <fail1>
 104:	02619663          	bne	gp,t1,130 <fail2>
 108:	02721a63          	bne	tp,t2,13c <fail3>

0000010c <pass>:
 10c:	00000513          	li	a0,0
 110:	05d00893          	li	a7,93
 114:	00100073          	ebreak

00000118 <fail0>:
 118:	00100513          	li	a0,1
 11c:	05d00893          	li	a7,93
 120:	00100073          	ebreak

00000124 <fail1>:
 124:	00200513          	li	a0,2
 128:	05d00893          	li	a7,93
 12c:	00100073          	ebreak

00000130 <fail2>:
 130:	00400513          	li	a0,4
 134:	05d00893          	li	a7,93
 138:	00100073          	ebreak

0000013c <fail3>:
 13c:	00600513          	li	a0,6
 140:	05d00893          	li	a7,93
 144:	00100073          	ebreak

Disassembly of section .data:

00004000 <__DATA_BEGIN__>:
    4000:	5678                	lw	a4,108(a2)
    4002:	1234                	addi	a3,sp,296
    4004:	0000                	unimp
    4006:	0000                	unimp
    4008:	11335577          	0x11335577
    400c:	0000                	unimp
    400e:	0000                	unimp
    4010:	ef19                	bnez	a4,402e <_edata+0x1a>
    4012:	abcd                	j	4604 <_edata+0x5f0>

Disassembly of section .riscv.attributes:

00000000 <.riscv.attributes>:
   0:	1d41                	addi	s10,s10,-16
   2:	0000                	unimp
   4:	7200                	flw	fs0,32(a2)
   6:	7369                	lui	t1,0xffffa
   8:	01007663          	bgeu	zero,a6,14 <__rom_start+0x14>
   c:	00000013          	nop
  10:	7205                	lui	tp,0xfffe1
  12:	3376                	fld	ft6,376(sp)
  14:	6932                	flw	fs2,12(sp)
  16:	7032                	flw	ft0,44(sp)
  18:	0030                	addi	a2,sp,8
  1a:	0108                	addi	a0,sp,128
  1c:	0b0a                	slli	s6,s6,0x2
